target datalayout = "e-m:e-p270:32:32-p271:32:32-p272:64:64-i64:64-i128:128-f80:128-n8:16:32:64-S128"
target triple = "x86_64-pc-linux-gnu"

%struct.SMgrRelationData = type { %struct.RelFileLocatorBackend, i32, [4 x i32], i32, [4 x i32], [4 x ptr], i32, %struct.dlist_node }
%struct.RelFileLocatorBackend = type { %struct.RelFileLocator, i32 }
%struct.RelFileLocator = type { i32, i32, i32 }
%struct.dlist_node = type { ptr, ptr }
%struct._MdfdVec = type { i32, i32 }

@MdCxt = internal global ptr null, align 8
@.str.1 = private unnamed_addr constant [31 x i8] c"could not create file \22%s\22: %m\00", align 1
@.str.2 = private unnamed_addr constant [5 x i8] c"md.c\00", align 1
@__func__.mdcreate = private unnamed_addr constant [9 x i8] c"mdcreate\00", align 1
@io_direct_flags = external global i32, align 4

; Function Attrs: nounwind uwtable
define internal void @_fdvec_resize(ptr noundef %0, i32 noundef %1, i32 noundef %2) #0 {
  %4 = alloca ptr, align 8
  %5 = alloca i32, align 4
  %6 = alloca i32, align 4
  store ptr %0, ptr %4, align 8
  store i32 %1, ptr %5, align 4
  store i32 %2, ptr %6, align 4
  %7 = load i32, ptr %6, align 4
  %8 = icmp eq i32 %7, 0
  br i1 %8, label %9, label %30

9:                                                ; preds = %3
  %10 = load ptr, ptr %4, align 8
  %11 = getelementptr inbounds nuw %struct.SMgrRelationData, ptr %10, i32 0, i32 4
  %12 = load i32, ptr %5, align 4
  %13 = sext i32 %12 to i64
  %14 = getelementptr inbounds [4 x i32], ptr %11, i64 0, i64 %13
  %15 = load i32, ptr %14, align 4
  %16 = icmp sgt i32 %15, 0
  br i1 %16, label %17, label %29

17:                                               ; preds = %9
  %18 = load ptr, ptr %4, align 8
  %19 = getelementptr inbounds nuw %struct.SMgrRelationData, ptr %18, i32 0, i32 5
  %20 = load i32, ptr %5, align 4
  %21 = sext i32 %20 to i64
  %22 = getelementptr inbounds [4 x ptr], ptr %19, i64 0, i64 %21
  %23 = load ptr, ptr %22, align 8
  call void @pfree(ptr noundef %23)
  %24 = load ptr, ptr %4, align 8
  %25 = getelementptr inbounds nuw %struct.SMgrRelationData, ptr %24, i32 0, i32 5
  %26 = load i32, ptr %5, align 4
  %27 = sext i32 %26 to i64
  %28 = getelementptr inbounds [4 x ptr], ptr %25, i64 0, i64 %27
  store ptr null, ptr %28, align 8
  br label %29

29:                                               ; preds = %17, %9
  br label %77

30:                                               ; preds = %3
  %31 = load ptr, ptr %4, align 8
  %32 = getelementptr inbounds nuw %struct.SMgrRelationData, ptr %31, i32 0, i32 4
  %33 = load i32, ptr %5, align 4
  %34 = sext i32 %33 to i64
  %35 = getelementptr inbounds [4 x i32], ptr %32, i64 0, i64 %34
  %36 = load i32, ptr %35, align 4
  %37 = icmp eq i32 %36, 0
  br i1 %37, label %38, label %49

38:                                               ; preds = %30
  %39 = load ptr, ptr @MdCxt, align 8
  %40 = load i32, ptr %6, align 4
  %41 = sext i32 %40 to i64
  %42 = mul i64 8, %41
  %43 = call ptr @MemoryContextAlloc(ptr noundef %39, i64 noundef %42)
  %44 = load ptr, ptr %4, align 8
  %45 = getelementptr inbounds nuw %struct.SMgrRelationData, ptr %44, i32 0, i32 5
  %46 = load i32, ptr %5, align 4
  %47 = sext i32 %46 to i64
  %48 = getelementptr inbounds [4 x ptr], ptr %45, i64 0, i64 %47
  store ptr %43, ptr %48, align 8
  br label %76

49:                                               ; preds = %30
  %50 = load i32, ptr %6, align 4
  %51 = load ptr, ptr %4, align 8
  %52 = getelementptr inbounds nuw %struct.SMgrRelationData, ptr %51, i32 0, i32 4
  %53 = load i32, ptr %5, align 4
  %54 = sext i32 %53 to i64
  %55 = getelementptr inbounds [4 x i32], ptr %52, i64 0, i64 %54
  %56 = load i32, ptr %55, align 4
  %57 = icmp sgt i32 %50, %56
  br i1 %57, label %58, label %74

58:                                               ; preds = %49
  %59 = load ptr, ptr %4, align 8
  %60 = getelementptr inbounds nuw %struct.SMgrRelationData, ptr %59, i32 0, i32 5
  %61 = load i32, ptr %5, align 4
  %62 = sext i32 %61 to i64
  %63 = getelementptr inbounds [4 x ptr], ptr %60, i64 0, i64 %62
  %64 = load ptr, ptr %63, align 8
  %65 = load i32, ptr %6, align 4
  %66 = sext i32 %65 to i64
  %67 = mul i64 8, %66
  %68 = call ptr @repalloc(ptr noundef %64, i64 noundef %67)
  %69 = load ptr, ptr %4, align 8
  %70 = getelementptr inbounds nuw %struct.SMgrRelationData, ptr %69, i32 0, i32 5
  %71 = load i32, ptr %5, align 4
  %72 = sext i32 %71 to i64
  %73 = getelementptr inbounds [4 x ptr], ptr %70, i64 0, i64 %72
  store ptr %68, ptr %73, align 8
  br label %75

74:                                               ; preds = %49
  br label %75

75:                                               ; preds = %74, %58
  br label %76

76:                                               ; preds = %75, %38
  br label %77

77:                                               ; preds = %76, %29
  %78 = load i32, ptr %6, align 4
  %79 = load ptr, ptr %4, align 8
  %80 = getelementptr inbounds nuw %struct.SMgrRelationData, ptr %79, i32 0, i32 4
  %81 = load i32, ptr %5, align 4
  %82 = sext i32 %81 to i64
  %83 = getelementptr inbounds [4 x i32], ptr %80, i64 0, i64 %82
  store i32 %78, ptr %83, align 4
  ret void
}

; Function Attrs: inlinehint nounwind uwtable
define internal i32 @_mdfd_open_flags() #3 {
  %1 = alloca i32, align 4
  call void @llvm.lifetime.start.p0(i64 4, ptr %1) #10
  store i32 2, ptr %1, align 4
  %2 = load i32, ptr @io_direct_flags, align 4
  %3 = and i32 %2, 1
  %4 = icmp ne i32 %3, 0
  br i1 %4, label %5, label %8

5:                                                ; preds = %0
  %6 = load i32, ptr %1, align 4
  %7 = or i32 %6, 16384
  store i32 %7, ptr %1, align 4
  br label %8

8:                                                ; preds = %5, %0
  %9 = load i32, ptr %1, align 4
  call void @llvm.lifetime.end.p0(i64 4, ptr %1) #10
  ret i32 %9
}

; Function Attrs: nounwind uwtable
define dso_local void @mdcreate(ptr noundef %0, i32 noundef %1, i1 noundef zeroext %2) #0 {
  %4 = alloca ptr, align 8
  %5 = alloca i32, align 4
  %6 = alloca i8, align 1
  %7 = alloca ptr, align 8
  %8 = alloca ptr, align 8
  %9 = alloca i32, align 4
  %10 = alloca i32, align 4
  %11 = alloca i32, align 4
  store ptr %0, ptr %4, align 8
  store i32 %1, ptr %5, align 4
  %12 = zext i1 %2 to i8
  store i8 %12, ptr %6, align 1
  call void @llvm.lifetime.start.p0(i64 8, ptr %7) #10
  call void @llvm.lifetime.start.p0(i64 8, ptr %8) #10
  call void @llvm.lifetime.start.p0(i64 4, ptr %9) #10
  %13 = load i8, ptr %6, align 1, !range !4, !noundef !5
  %14 = trunc i8 %13 to i1
  br i1 %14, label %15, label %24

15:                                               ; preds = %3
  %16 = load ptr, ptr %4, align 8
  %17 = getelementptr inbounds nuw %struct.SMgrRelationData, ptr %16, i32 0, i32 4
  %18 = load i32, ptr %5, align 4
  %19 = sext i32 %18 to i64
  %20 = getelementptr inbounds [4 x i32], ptr %17, i64 0, i64 %19
  %21 = load i32, ptr %20, align 4
  %22 = icmp sgt i32 %21, 0
  br i1 %22, label %23, label %24

23:                                               ; preds = %15
  store i32 1, ptr %10, align 4
  br label %119

24:                                               ; preds = %15, %3
  %25 = load ptr, ptr %4, align 8
  %26 = getelementptr inbounds nuw %struct.SMgrRelationData, ptr %25, i32 0, i32 0
  %27 = getelementptr inbounds nuw %struct.RelFileLocatorBackend, ptr %26, i32 0, i32 0
  %28 = getelementptr inbounds nuw %struct.RelFileLocator, ptr %27, i32 0, i32 0
  %29 = load i32, ptr %28, align 8
  %30 = load ptr, ptr %4, align 8
  %31 = getelementptr inbounds nuw %struct.SMgrRelationData, ptr %30, i32 0, i32 0
  %32 = getelementptr inbounds nuw %struct.RelFileLocatorBackend, ptr %31, i32 0, i32 0
  %33 = getelementptr inbounds nuw %struct.RelFileLocator, ptr %32, i32 0, i32 1
  %34 = load i32, ptr %33, align 4
  %35 = load i8, ptr %6, align 1, !range !4, !noundef !5
  %36 = trunc i8 %35 to i1
  call void @TablespaceCreateDbspace(i32 noundef %29, i32 noundef %34, i1 noundef zeroext %36)
  %37 = load ptr, ptr %4, align 8
  %38 = getelementptr inbounds nuw %struct.SMgrRelationData, ptr %37, i32 0, i32 0
  %39 = getelementptr inbounds nuw %struct.RelFileLocatorBackend, ptr %38, i32 0, i32 0
  %40 = getelementptr inbounds nuw %struct.RelFileLocator, ptr %39, i32 0, i32 1
  %41 = load i32, ptr %40, align 4
  %42 = load ptr, ptr %4, align 8
  %43 = getelementptr inbounds nuw %struct.SMgrRelationData, ptr %42, i32 0, i32 0
  %44 = getelementptr inbounds nuw %struct.RelFileLocatorBackend, ptr %43, i32 0, i32 0
  %45 = getelementptr inbounds nuw %struct.RelFileLocator, ptr %44, i32 0, i32 0
  %46 = load i32, ptr %45, align 8
  %47 = load ptr, ptr %4, align 8
  %48 = getelementptr inbounds nuw %struct.SMgrRelationData, ptr %47, i32 0, i32 0
  %49 = getelementptr inbounds nuw %struct.RelFileLocatorBackend, ptr %48, i32 0, i32 0
  %50 = getelementptr inbounds nuw %struct.RelFileLocator, ptr %49, i32 0, i32 2
  %51 = load i32, ptr %50, align 8
  %52 = load ptr, ptr %4, align 8
  %53 = getelementptr inbounds nuw %struct.SMgrRelationData, ptr %52, i32 0, i32 0
  %54 = getelementptr inbounds nuw %struct.RelFileLocatorBackend, ptr %53, i32 0, i32 1
  %55 = load i32, ptr %54, align 4
  %56 = load i32, ptr %5, align 4
  %57 = call ptr @GetRelationPath(i32 noundef %41, i32 noundef %46, i32 noundef %51, i32 noundef %55, i32 noundef %56)
  store ptr %57, ptr %8, align 8
  %58 = load ptr, ptr %8, align 8
  %59 = call i32 @_mdfd_open_flags()
  %60 = or i32 %59, 64
  %61 = or i32 %60, 128
  %62 = call i32 @PathNameOpenFile(ptr noundef %58, i32 noundef %61)
  store i32 %62, ptr %9, align 4
  %63 = load i32, ptr %9, align 4
  %64 = icmp slt i32 %63, 0
  br i1 %64, label %65, label %93

65:                                               ; preds = %24
  call void @llvm.lifetime.start.p0(i64 4, ptr %11) #10
  %66 = call ptr @__errno_location() #11
  %67 = load i32, ptr %66, align 4
  store i32 %67, ptr %11, align 4
  %68 = load i8, ptr %6, align 1, !range !4, !noundef !5
  %69 = trunc i8 %68 to i1
  br i1 %69, label %70, label %74

70:                                               ; preds = %65
  %71 = load ptr, ptr %8, align 8
  %72 = call i32 @_mdfd_open_flags()
  %73 = call i32 @PathNameOpenFile(ptr noundef %71, i32 noundef %72)
  store i32 %73, ptr %9, align 4
  br label %74

74:                                               ; preds = %70, %65
  %75 = load i32, ptr %9, align 4
  %76 = icmp slt i32 %75, 0
  br i1 %76, label %77, label %92

77:                                               ; preds = %74
  %78 = load i32, ptr %11, align 4
  %79 = call ptr @__errno_location() #11
  store i32 %78, ptr %79, align 4
  br label %80

80:                                               ; preds = %77
  br i1 true, label %81, label %83

81:                                               ; preds = %80
  %82 = call zeroext i1 @errstart_cold(i32 noundef 21, ptr noundef null) #12
  br i1 %82, label %85, label %89

83:                                               ; preds = %80
  %84 = call zeroext i1 @errstart(i32 noundef 21, ptr noundef null)
  br i1 %84, label %85, label %89

85:                                               ; preds = %83, %81
  %86 = call i32 @errcode_for_file_access()
  %87 = load ptr, ptr %8, align 8
  %88 = call i32 (ptr, ...) @errmsg(ptr noundef @.str.1, ptr noundef %87)
  call void @errfinish(ptr noundef @.str.2, i32 noundef 222, ptr noundef @__func__.mdcreate)
  br label %89

89:                                               ; preds = %85, %83, %81
  unreachable

90:                                               ; No predecessors!
  br label %91

91:                                               ; preds = %90
  br label %92

92:                                               ; preds = %91, %74
  call void @llvm.lifetime.end.p0(i64 4, ptr %11) #10
  br label %93

93:                                               ; preds = %92, %24
  %94 = load ptr, ptr %8, align 8
  call void @pfree(ptr noundef %94)
  %95 = load ptr, ptr %4, align 8
  %96 = load i32, ptr %5, align 4
  call void @_fdvec_resize(ptr noundef %95, i32 noundef %96, i32 noundef 1)
  %97 = load ptr, ptr %4, align 8
  %98 = getelementptr inbounds nuw %struct.SMgrRelationData, ptr %97, i32 0, i32 5
  %99 = load i32, ptr %5, align 4
  %100 = sext i32 %99 to i64
  %101 = getelementptr inbounds [4 x ptr], ptr %98, i64 0, i64 %100
  %102 = load ptr, ptr %101, align 8
  %103 = getelementptr inbounds %struct._MdfdVec, ptr %102, i64 0
  store ptr %103, ptr %7, align 8
  %104 = load i32, ptr %9, align 4
  %105 = load ptr, ptr %7, align 8
  %106 = getelementptr inbounds nuw %struct._MdfdVec, ptr %105, i32 0, i32 0
  store i32 %104, ptr %106, align 4
  %107 = load ptr, ptr %7, align 8
  %108 = getelementptr inbounds nuw %struct._MdfdVec, ptr %107, i32 0, i32 1
  store i32 0, ptr %108, align 4
  %109 = load ptr, ptr %4, align 8
  %110 = getelementptr inbounds nuw %struct.SMgrRelationData, ptr %109, i32 0, i32 0
  %111 = getelementptr inbounds nuw %struct.RelFileLocatorBackend, ptr %110, i32 0, i32 1
  %112 = load i32, ptr %111, align 4
  %113 = icmp ne i32 %112, -1
  br i1 %113, label %118, label %114

114:                                              ; preds = %93
  %115 = load ptr, ptr %4, align 8
  %116 = load i32, ptr %5, align 4
  %117 = load ptr, ptr %7, align 8
  call void @register_dirty_segment(ptr noundef %115, i32 noundef %116, ptr noundef %117)
  br label %118

118:                                              ; preds = %114, %93
  store i32 0, ptr %10, align 4
  br label %119

119:                                              ; preds = %118, %23
  call void @llvm.lifetime.end.p0(i64 4, ptr %9) #10
  call void @llvm.lifetime.end.p0(i64 8, ptr %8) #10
  call void @llvm.lifetime.end.p0(i64 8, ptr %7) #10
  %120 = load i32, ptr %10, align 4
  switch i32 %120, label %122 [
    i32 0, label %121
    i32 1, label %121
  ]

121:                                              ; preds = %119, %119
  ret void

122:                                              ; preds = %119
  unreachable
}