; Function Attrs: nounwind uwtable
define dso_local void @mdcreate(ptr noundef captures(none) %0, i32 noundef %1, i1 noundef zeroext %2) local_unnamed_addr #0 {
  br i1 %2, label %4, label %10

4:                                                ; preds = %3
  %5 = getelementptr inbounds nuw i8, ptr %0, i64 40
  %6 = sext i32 %1 to i64
  %7 = getelementptr inbounds [4 x i32], ptr %5, i64 0, i64 %6
  %8 = load i32, ptr %7, align 4
  %9 = icmp sgt i32 %8, 0
  br i1 %9, label %61, label %10

10:                                               ; preds = %4, %3
  %11 = load i32, ptr %0, align 8
  %12 = getelementptr inbounds nuw i8, ptr %0, i64 4
  %13 = load i32, ptr %12, align 4
  tail call void @TablespaceCreateDbspace(i32 noundef %11, i32 noundef %13, i1 noundef zeroext %2) #15
  %14 = load i32, ptr %12, align 4
  %15 = load i32, ptr %0, align 8
  %16 = getelementptr inbounds nuw i8, ptr %0, i64 8
  %17 = load i32, ptr %16, align 8
  %18 = getelementptr inbounds nuw i8, ptr %0, i64 12
  %19 = load i32, ptr %18, align 4
  %20 = tail call ptr @GetRelationPath(i32 noundef %14, i32 noundef %15, i32 noundef %17, i32 noundef %19, i32 noundef %1) #15
  %21 = load i32, ptr @io_direct_flags, align 4
  %22 = and i32 %21, 1
  %.not.i = icmp eq i32 %22, 0
  %23 = select i1 %.not.i, i32 194, i32 16578
  %24 = tail call i32 @PathNameOpenFile(ptr noundef %20, i32 noundef %23) #15
  %25 = icmp slt i32 %24, 0
  br i1 %25, label %26, label %37

26:                                               ; preds = %10
  %27 = tail call ptr @__errno_location() #16
  %28 = load i32, ptr %27, align 4
  br i1 %2, label %29, label %.thread

29:                                               ; preds = %26
  %30 = load i32, ptr @io_direct_flags, align 4
  %31 = and i32 %30, 1
  %.not.i31 = icmp eq i32 %31, 0
  %spec.select.i32 = select i1 %.not.i31, i32 2, i32 16386
  %32 = tail call i32 @PathNameOpenFile(ptr noundef %20, i32 noundef %spec.select.i32) #15
  %33 = icmp slt i32 %32, 0
  br i1 %33, label %.thread, label %37

.thread:                                          ; preds = %26, %29
  store i32 %28, ptr %27, align 4
  %34 = tail call zeroext i1 @errstart_cold(i32 noundef 21, ptr noundef null) #17
  tail call void @llvm.assume(i1 %34)
  %35 = tail call i32 @errcode_for_file_access() #15
  %36 = tail call i32 (ptr, ...) @errmsg(ptr noundef nonnull @.str.1, ptr noundef %20) #15
  tail call void @errfinish(ptr noundef nonnull @.str.2, i32 noundef 222, ptr noundef nonnull @__func__.mdcreate) #15
  unreachable

37:                                               ; preds = %29, %10
  %.0 = phi i32 [ %24, %10 ], [ %32, %29 ]
  tail call void @pfree(ptr noundef %20) #15
  %38 = getelementptr inbounds nuw i8, ptr %0, i64 40
  %39 = sext i32 %1 to i64
  %40 = getelementptr inbounds [4 x i32], ptr %38, i64 0, i64 %39
  %41 = load i32, ptr %40, align 4
  %42 = icmp eq i32 %41, 0
  br i1 %42, label %43, label %48

43:                                               ; preds = %37
  %44 = load ptr, ptr @MdCxt, align 8
  %45 = tail call ptr @MemoryContextAlloc(ptr noundef %44, i64 noundef 8) #15
  %46 = getelementptr inbounds nuw i8, ptr %0, i64 56
  %47 = getelementptr inbounds [4 x ptr], ptr %46, i64 0, i64 %39
  store ptr %45, ptr %47, align 8
  br label %_fdvec_resize.exit

48:                                               ; preds = %37
  %49 = icmp slt i32 %41, 1
  br i1 %49, label %50, label %_fdvec_resize.exit

50:                                               ; preds = %48
  %51 = getelementptr inbounds nuw i8, ptr %0, i64 56
  %52 = getelementptr inbounds [4 x ptr], ptr %51, i64 0, i64 %39
  %53 = load ptr, ptr %52, align 8
  %54 = tail call ptr @repalloc(ptr noundef %53, i64 noundef 8) #15
  store ptr %54, ptr %52, align 8
  br label %_fdvec_resize.exit

_fdvec_resize.exit:                               ; preds = %43, %48, %50
  store i32 1, ptr %40, align 4
  %55 = getelementptr inbounds nuw i8, ptr %0, i64 56
  %56 = getelementptr inbounds [4 x ptr], ptr %55, i64 0, i64 %39
  %57 = load ptr, ptr %56, align 8
  store i32 %.0, ptr %57, align 4
  %58 = getelementptr inbounds nuw i8, ptr %57, i64 4
  store i32 0, ptr %58, align 4
  %59 = load i32, ptr %18, align 4
  %.not = icmp eq i32 %59, -1
  br i1 %.not, label %60, label %61

60:                                               ; preds = %_fdvec_resize.exit
  tail call fastcc void @register_dirty_segment(ptr noundef nonnull %0, i32 noundef %1, ptr noundef nonnull %57)
  br label %61

61:                                               ; preds = %_fdvec_resize.exit, %60, %4
  ret void
}